target datalayout = "e-m:e-p270:32:32-p271:32:32-p272:64:64-i64:64-i128:128-f80:128-n8:16:32:64-S128"
target triple = "x86_64-pc-linux-gnu"

%struct.URLContext = type { ptr, ptr, ptr, ptr, i32, i32, i32, i32, %struct.AVIOInterruptCB, i64, ptr, ptr, i32 }
%struct.AVIOInterruptCB = type { ptr, ptr }
%struct.CryptoContext = type { ptr, ptr, [4112 x i8], [4112 x i8], ptr, i32, i32, i32, i64, i32, i32, ptr, i32, ptr, i32, ptr, i32, ptr, i32, ptr, i32, ptr, i32, ptr, ptr, ptr, i32, [16 x i8], i32 }

; Function Attrs: inlinehint nounwind uwtable
define internal i32 @ffurl_write(ptr noundef %0, ptr noundef %1, i32 noundef %2) #4 {
  %4 = alloca ptr, align 8
  %5 = alloca ptr, align 8
  %6 = alloca i32, align 4
  store ptr %0, ptr %4, align 8, !tbaa !4
  store ptr %1, ptr %5, align 8, !tbaa !9
  store i32 %2, ptr %6, align 4, !tbaa !11
  %7 = load ptr, ptr %4, align 8, !tbaa !4
  %8 = load ptr, ptr %5, align 8, !tbaa !9
  %9 = load i32, ptr %6, align 4, !tbaa !11
  %10 = call i32 @ffurl_write2(ptr noundef %7, ptr noundef %8, i32 noundef %9)
  ret i32 %10
}

; Function Attrs: nounwind uwtable
define internal i32 @crypto_write(ptr noundef %0, ptr noundef %1, i32 noundef %2) #0 {
  %4 = alloca i32, align 4
  %5 = alloca ptr, align 8
  %6 = alloca ptr, align 8
  %7 = alloca i32, align 4
  %8 = alloca ptr, align 8
  %9 = alloca i32, align 4
  %10 = alloca i32, align 4
  %11 = alloca i32, align 4
  %12 = alloca i32, align 4
  %13 = alloca i32, align 4
  %14 = alloca i32, align 4
  store ptr %0, ptr %5, align 8, !tbaa !4
  store ptr %1, ptr %6, align 8, !tbaa !9
  store i32 %2, ptr %7, align 4, !tbaa !11
  call void @llvm.lifetime.start.p0(i64 8, ptr %8) #6
  %15 = load ptr, ptr %5, align 8, !tbaa !4
  %16 = getelementptr inbounds nuw %struct.URLContext, ptr %15, i32 0, i32 2
  %17 = load ptr, ptr %16, align 8, !tbaa !16
  store ptr %17, ptr %8, align 8, !tbaa !22
  call void @llvm.lifetime.start.p0(i64 4, ptr %9) #6
  call void @llvm.lifetime.start.p0(i64 4, ptr %10) #6
  call void @llvm.lifetime.start.p0(i64 4, ptr %11) #6
  call void @llvm.lifetime.start.p0(i64 4, ptr %12) #6
  call void @llvm.lifetime.start.p0(i64 4, ptr %13) #6
  store i32 0, ptr %13, align 4, !tbaa !11
  %18 = load i32, ptr %7, align 4, !tbaa !11
  %19 = load ptr, ptr %8, align 8, !tbaa !22
  %20 = getelementptr inbounds nuw %struct.CryptoContext, ptr %19, i32 0, i32 28
  %21 = load i32, ptr %20, align 4, !tbaa !49
  %22 = add nsw i32 %18, %21
  store i32 %22, ptr %9, align 4, !tbaa !11
  %23 = load i32, ptr %9, align 4, !tbaa !11
  %24 = srem i32 %23, 16
  store i32 %24, ptr %11, align 4, !tbaa !11
  %25 = load i32, ptr %9, align 4, !tbaa !11
  %26 = load i32, ptr %11, align 4, !tbaa !11
  %27 = sub nsw i32 %25, %26
  store i32 %27, ptr %12, align 4, !tbaa !11
  %28 = load i32, ptr %12, align 4, !tbaa !11
  %29 = sdiv i32 %28, 16
  store i32 %29, ptr %10, align 4, !tbaa !11
  %30 = load i32, ptr %12, align 4, !tbaa !11
  %31 = icmp ne i32 %30, 0
  br i1 %31, label %32, label %134

32:                                               ; preds = %3
  %33 = load ptr, ptr %8, align 8, !tbaa !22
  %34 = getelementptr inbounds nuw %struct.CryptoContext, ptr %33, i32 0, i32 25
  %35 = load ptr, ptr %8, align 8, !tbaa !22
  %36 = getelementptr inbounds nuw %struct.CryptoContext, ptr %35, i32 0, i32 26
  %37 = load i32, ptr %12, align 4, !tbaa !11
  %38 = sext i32 %37 to i64
  call void @av_fast_malloc(ptr noundef %34, ptr noundef %36, i64 noundef %38)
  %39 = load ptr, ptr %8, align 8, !tbaa !22
  %40 = getelementptr inbounds nuw %struct.CryptoContext, ptr %39, i32 0, i32 25
  %41 = load ptr, ptr %40, align 8, !tbaa !50
  %42 = icmp ne ptr %41, null
  br i1 %42, label %44, label %43

43:                                               ; preds = %32
  store i32 -12, ptr %4, align 4
  store i32 1, ptr %14, align 4
  br label %150

44:                                               ; preds = %32
  %45 = load ptr, ptr %8, align 8, !tbaa !22
  %46 = getelementptr inbounds nuw %struct.CryptoContext, ptr %45, i32 0, i32 28
  %47 = load i32, ptr %46, align 4, !tbaa !49
  %48 = icmp ne i32 %47, 0
  br i1 %48, label %49, label %77

49:                                               ; preds = %44
  %50 = load ptr, ptr %8, align 8, !tbaa !22
  %51 = getelementptr inbounds nuw %struct.CryptoContext, ptr %50, i32 0, i32 27
  %52 = load ptr, ptr %8, align 8, !tbaa !22
  %53 = getelementptr inbounds nuw %struct.CryptoContext, ptr %52, i32 0, i32 28
  %54 = load i32, ptr %53, align 4, !tbaa !49
  %55 = sext i32 %54 to i64
  %56 = getelementptr inbounds [16 x i8], ptr %51, i64 0, i64 %55
  %57 = load ptr, ptr %6, align 8, !tbaa !9
  %58 = load ptr, ptr %8, align 8, !tbaa !22
  %59 = getelementptr inbounds nuw %struct.CryptoContext, ptr %58, i32 0, i32 28
  %60 = load i32, ptr %59, align 4, !tbaa !49
  %61 = sub nsw i32 16, %60
  %62 = sext i32 %61 to i64
  call void @llvm.memcpy.p0.p0.i64(ptr align 1 %56, ptr align 1 %57, i64 %62, i1 false)
  %63 = load ptr, ptr %8, align 8, !tbaa !22
  %64 = getelementptr inbounds nuw %struct.CryptoContext, ptr %63, i32 0, i32 24
  %65 = load ptr, ptr %64, align 8, !tbaa !37
  %66 = load ptr, ptr %8, align 8, !tbaa !22
  %67 = getelementptr inbounds nuw %struct.CryptoContext, ptr %66, i32 0, i32 25
  %68 = load ptr, ptr %67, align 8, !tbaa !50
  %69 = load ptr, ptr %8, align 8, !tbaa !22
  %70 = getelementptr inbounds nuw %struct.CryptoContext, ptr %69, i32 0, i32 27
  %71 = getelementptr inbounds [16 x i8], ptr %70, i64 0, i64 0
  %72 = load ptr, ptr %8, align 8, !tbaa !22
  %73 = getelementptr inbounds nuw %struct.CryptoContext, ptr %72, i32 0, i32 21
  %74 = load ptr, ptr %73, align 8, !tbaa !51
  call void @av_aes_crypt(ptr noundef %65, ptr noundef %68, ptr noundef %71, i32 noundef 1, ptr noundef %74, i32 noundef 0)
  %75 = load i32, ptr %10, align 4, !tbaa !11
  %76 = add nsw i32 %75, -1
  store i32 %76, ptr %10, align 4, !tbaa !11
  br label %77

77:                                               ; preds = %49, %44
  %78 = load ptr, ptr %8, align 8, !tbaa !22
  %79 = getelementptr inbounds nuw %struct.CryptoContext, ptr %78, i32 0, i32 24
  %80 = load ptr, ptr %79, align 8, !tbaa !37
  %81 = load ptr, ptr %8, align 8, !tbaa !22
  %82 = getelementptr inbounds nuw %struct.CryptoContext, ptr %81, i32 0, i32 25
  %83 = load ptr, ptr %82, align 8, !tbaa !50
  %84 = load ptr, ptr %8, align 8, !tbaa !22
  %85 = getelementptr inbounds nuw %struct.CryptoContext, ptr %84, i32 0, i32 28
  %86 = load i32, ptr %85, align 4, !tbaa !49
  %87 = icmp ne i32 %86, 0
  %88 = select i1 %87, i32 16, i32 0
  %89 = sext i32 %88 to i64
  %90 = getelementptr inbounds i8, ptr %83, i64 %89
  %91 = load ptr, ptr %6, align 8, !tbaa !9
  %92 = load ptr, ptr %8, align 8, !tbaa !22
  %93 = getelementptr inbounds nuw %struct.CryptoContext, ptr %92, i32 0, i32 28
  %94 = load i32, ptr %93, align 4, !tbaa !49
  %95 = icmp ne i32 %94, 0
  br i1 %95, label %96, label %101

96:                                               ; preds = %77
  %97 = load ptr, ptr %8, align 8, !tbaa !22
  %98 = getelementptr inbounds nuw %struct.CryptoContext, ptr %97, i32 0, i32 28
  %99 = load i32, ptr %98, align 4, !tbaa !49
  %100 = sub nsw i32 16, %99
  br label %102

101:                                              ; preds = %77
  br label %102

102:                                              ; preds = %101, %96
  %103 = phi i32 [ %100, %96 ], [ 0, %101 ]
  %104 = sext i32 %103 to i64
  %105 = getelementptr inbounds i8, ptr %91, i64 %104
  %106 = load i32, ptr %10, align 4, !tbaa !11
  %107 = load ptr, ptr %8, align 8, !tbaa !22
  %108 = getelementptr inbounds nuw %struct.CryptoContext, ptr %107, i32 0, i32 21
  %109 = load ptr, ptr %108, align 8, !tbaa !51
  call void @av_aes_crypt(ptr noundef %80, ptr noundef %90, ptr noundef %105, i32 noundef %106, ptr noundef %109, i32 noundef 0)
  %110 = load ptr, ptr %8, align 8, !tbaa !22
  %111 = getelementptr inbounds nuw %struct.CryptoContext, ptr %110, i32 0, i32 1
  %112 = load ptr, ptr %111, align 8, !tbaa !35
  %113 = load ptr, ptr %8, align 8, !tbaa !22
  %114 = getelementptr inbounds nuw %struct.CryptoContext, ptr %113, i32 0, i32 25
  %115 = load ptr, ptr %114, align 8, !tbaa !50
  %116 = load i32, ptr %12, align 4, !tbaa !11
  %117 = call i32 @ffurl_write(ptr noundef %112, ptr noundef %115, i32 noundef %116)
  store i32 %117, ptr %13, align 4, !tbaa !11
  %118 = load i32, ptr %13, align 4, !tbaa !11
  %119 = icmp slt i32 %118, 0
  br i1 %119, label %120, label %122

120:                                              ; preds = %102
  %121 = load i32, ptr %13, align 4, !tbaa !11
  store i32 %121, ptr %4, align 4
  store i32 1, ptr %14, align 4
  br label %150

122:                                              ; preds = %102
  %123 = load ptr, ptr %8, align 8, !tbaa !22
  %124 = getelementptr inbounds nuw %struct.CryptoContext, ptr %123, i32 0, i32 27
  %125 = getelementptr inbounds [16 x i8], ptr %124, i64 0, i64 0
  %126 = load ptr, ptr %6, align 8, !tbaa !9
  %127 = load i32, ptr %7, align 4, !tbaa !11
  %128 = load i32, ptr %11, align 4, !tbaa !11
  %129 = sub nsw i32 %127, %128
  %130 = sext i32 %129 to i64
  %131 = getelementptr inbounds i8, ptr %126, i64 %130
  %132 = load i32, ptr %11, align 4, !tbaa !11
  %133 = sext i32 %132 to i64
  call void @llvm.memcpy.p0.p0.i64(ptr align 4 %125, ptr align 1 %131, i64 %133, i1 false)
  br label %145

134:                                              ; preds = %3
  %135 = load ptr, ptr %8, align 8, !tbaa !22
  %136 = getelementptr inbounds nuw %struct.CryptoContext, ptr %135, i32 0, i32 27
  %137 = load ptr, ptr %8, align 8, !tbaa !22
  %138 = getelementptr inbounds nuw %struct.CryptoContext, ptr %137, i32 0, i32 28
  %139 = load i32, ptr %138, align 4, !tbaa !49
  %140 = sext i32 %139 to i64
  %141 = getelementptr inbounds [16 x i8], ptr %136, i64 0, i64 %140
  %142 = load ptr, ptr %6, align 8, !tbaa !9
  %143 = load i32, ptr %7, align 4, !tbaa !11
  %144 = sext i32 %143 to i64
  call void @llvm.memcpy.p0.p0.i64(ptr align 1 %141, ptr align 1 %142, i64 %144, i1 false)
  br label %145

145:                                              ; preds = %134, %122
  %146 = load i32, ptr %11, align 4, !tbaa !11
  %147 = load ptr, ptr %8, align 8, !tbaa !22
  %148 = getelementptr inbounds nuw %struct.CryptoContext, ptr %147, i32 0, i32 28
  store i32 %146, ptr %148, align 4, !tbaa !49
  %149 = load i32, ptr %7, align 4, !tbaa !11
  store i32 %149, ptr %4, align 4
  store i32 1, ptr %14, align 4
  br label %150

150:                                              ; preds = %145, %120, %43
  call void @llvm.lifetime.end.p0(i64 4, ptr %13) #6
  call void @llvm.lifetime.end.p0(i64 4, ptr %12) #6
  call void @llvm.lifetime.end.p0(i64 4, ptr %11) #6
  call void @llvm.lifetime.end.p0(i64 4, ptr %10) #6
  call void @llvm.lifetime.end.p0(i64 4, ptr %9) #6
  call void @llvm.lifetime.end.p0(i64 8, ptr %8) #6
  %151 = load i32, ptr %4, align 4
  ret i32 %151
}