; Function Attrs: nounwind uwtable
define internal i32 @crypto_write(ptr noundef readonly captures(none) %0, ptr noundef %1, i32 noundef %2) #0 {
  %4 = getelementptr inbounds nuw i8, ptr %0, i64 16
  %5 = load ptr, ptr %4, align 8, !tbaa !4
  %6 = getelementptr inbounds nuw i8, ptr %5, i64 8420
  %7 = load i32, ptr %6, align 4, !tbaa !41
  %8 = add nsw i32 %7, %2
  %9 = srem i32 %8, 16
  %10 = sub nsw i32 %8, %9
  %11 = sdiv i32 %8, 16
  %.not = icmp eq i32 %8, %9
  br i1 %.not, label %54, label %12

12:                                               ; preds = %3
  %13 = getelementptr inbounds nuw i8, ptr %5, i64 8392
  %14 = getelementptr inbounds nuw i8, ptr %5, i64 8400
  %15 = sext i32 %10 to i64
  tail call void @av_fast_malloc(ptr noundef nonnull %13, ptr noundef nonnull %14, i64 noundef %15) #6
  %16 = load ptr, ptr %13, align 8, !tbaa !42
  %.not52 = icmp eq ptr %16, null
  br i1 %.not52, label %60, label %17

17:                                               ; preds = %12
  %18 = load i32, ptr %6, align 4, !tbaa !41
  %.not53 = icmp eq i32 %18, 0
  br i1 %.not53, label %31, label %19

19:                                               ; preds = %17
  %20 = getelementptr inbounds nuw i8, ptr %5, i64 8404
  %21 = sext i32 %18 to i64
  %22 = getelementptr inbounds [16 x i8], ptr %20, i64 0, i64 %21
  %23 = sub nsw i32 16, %18
  %24 = sext i32 %23 to i64
  tail call void @llvm.memcpy.p0.p0.i64(ptr nonnull align 1 %22, ptr align 1 %1, i64 %24, i1 false)
  %25 = getelementptr inbounds nuw i8, ptr %5, i64 8384
  %26 = load ptr, ptr %25, align 8, !tbaa !31
  %27 = load ptr, ptr %13, align 8, !tbaa !42
  %28 = getelementptr inbounds nuw i8, ptr %5, i64 8360
  %29 = load ptr, ptr %28, align 8, !tbaa !43
  tail call void @av_aes_crypt(ptr noundef %26, ptr noundef %27, ptr noundef nonnull %20, i32 noundef 1, ptr noundef %29, i32 noundef 0) #6
  %30 = add nsw i32 %11, -1
  %.pre = load ptr, ptr %13, align 8, !tbaa !42
  %.pre55 = load i32, ptr %6, align 4, !tbaa !41
  br label %31

31:                                               ; preds = %19, %17
  %32 = phi i32 [ %.pre55, %19 ], [ 0, %17 ]
  %33 = phi ptr [ %.pre, %19 ], [ %16, %17 ]
  %.047 = phi i32 [ %30, %19 ], [ %11, %17 ]
  %34 = getelementptr inbounds nuw i8, ptr %5, i64 8384
  %35 = load ptr, ptr %34, align 8, !tbaa !31
  %.not54 = icmp eq i32 %32, 0
  %36 = select i1 %.not54, i64 0, i64 16
  %37 = getelementptr inbounds nuw i8, ptr %33, i64 %36
  %38 = sub nsw i32 16, %32
  %narrow = select i1 %.not54, i32 0, i32 %38
  %39 = sext i32 %narrow to i64
  %40 = getelementptr inbounds i8, ptr %1, i64 %39
  %41 = getelementptr inbounds nuw i8, ptr %5, i64 8360
  %42 = load ptr, ptr %41, align 8, !tbaa !43
  tail call void @av_aes_crypt(ptr noundef %35, ptr noundef %37, ptr noundef %40, i32 noundef %.047, ptr noundef %42, i32 noundef 0) #6
  %43 = getelementptr inbounds nuw i8, ptr %5, i64 8
  %44 = load ptr, ptr %43, align 8, !tbaa !29
  %45 = load ptr, ptr %13, align 8, !tbaa !42
  %46 = tail call i32 @ffurl_write2(ptr noundef %44, ptr noundef %45, i32 noundef range(i32 1, 0) %10) #6
  %47 = icmp slt i32 %46, 0
  br i1 %47, label %60, label %48

48:                                               ; preds = %31
  %49 = getelementptr inbounds nuw i8, ptr %5, i64 8404
  %50 = sub nsw i32 %2, %9
  %51 = sext i32 %50 to i64
  %52 = getelementptr inbounds i8, ptr %1, i64 %51
  %53 = sext i32 %9 to i64
  tail call void @llvm.memcpy.p0.p0.i64(ptr nonnull align 4 %49, ptr align 1 %52, i64 %53, i1 false)
  br label %59

54:                                               ; preds = %3
  %55 = getelementptr inbounds nuw i8, ptr %5, i64 8404
  %56 = sext i32 %7 to i64
  %57 = getelementptr inbounds [16 x i8], ptr %55, i64 0, i64 %56
  %58 = sext i32 %2 to i64
  tail call void @llvm.memcpy.p0.p0.i64(ptr nonnull align 1 %57, ptr align 1 %1, i64 %58, i1 false)
  br label %59

59:                                               ; preds = %54, %48
  store i32 %9, ptr %6, align 4, !tbaa !41
  br label %60

60:                                               ; preds = %31, %12, %59
  %.0 = phi i32 [ %2, %59 ], [ -12, %12 ], [ %46, %31 ]
  ret i32 %.0
}